; Function Attrs: mustprogress uwtable
define noundef double @_ZNK8QuantLib18AmericanPathPricer6payoffEd(ptr nocapture noundef nonnull readonly align 8 dereferenceable(56) %this, double noundef %state) local_unnamed_addr #4 align 2 {
entry:
  %payoff_ = getelementptr inbounds nuw i8, ptr %this, i64 16
  %0 = load ptr, ptr %payoff_, align 8, !tbaa !27
  %cmp.not.i = icmp eq ptr %0, null
  br i1 %cmp.not.i, label %cond.false.i, label %_ZNK5boost10shared_ptrIN8QuantLib6PayoffEEdeEv.exit, !prof !54

cond.false.i:                                     ; preds = %entry
  tail call void @_ZN5boost16assertion_failedEPKcS1_S1_l(ptr noundef nonnull @.str.15, ptr noundef nonnull @__PRETTY_FUNCTION__._ZNK5boost10shared_ptrIN8QuantLib6PayoffEEdeEv, ptr noundef nonnull @.str.16, i64 noundef 778)
  %.pre.i = load ptr, ptr %payoff_, align 8, !tbaa !27
  br label %_ZNK5boost10shared_ptrIN8QuantLib6PayoffEEdeEv.exit

_ZNK5boost10shared_ptrIN8QuantLib6PayoffEEdeEv.exit: ; preds = %entry, %cond.false.i
  %1 = phi ptr [ %0, %entry ], [ %.pre.i, %cond.false.i ]
  %scalingValue_ = getelementptr inbounds nuw i8, ptr %this, i64 8
  %2 = load double, ptr %scalingValue_, align 8, !tbaa !18
  %div = fdiv double %state, %2
  %vtable = load ptr, ptr %1, align 8, !tbaa !14
  %vfn = getelementptr inbounds i8, ptr %vtable, i64 32
  %3 = load ptr, ptr %vfn, align 8
  %call2 = tail call noundef double %3(ptr noundef nonnull align 8 dereferenceable(8) %1, double noundef %div)
  ret double %call2
}